; Function Attrs: nounwind uwtable
define dso_local void @packbuf(ptr noundef readonly captures(none) %0, ptr noundef %1) local_unnamed_addr #0 {
  %3 = getelementptr inbounds nuw i8, ptr %0, i64 20
  %4 = load i32, ptr %3, align 4
  %.not = icmp eq i32 %4, 0
  br i1 %.not, label %try_grow_buf_remaining.exit.thread, label %5

5:                                                ; preds = %2
  %6 = getelementptr inbounds nuw i8, ptr %1, i64 16
  %7 = load i32, ptr %6, align 8
  %8 = getelementptr inbounds nuw i8, ptr %1, i64 20
  %9 = load i32, ptr %8, align 4
  %10 = sub i32 %7, %9
  %11 = icmp ult i32 %10, %4
  br i1 %11, label %12, label %try_grow_buf_remaining.exit

12:                                               ; preds = %5
  %13 = add i32 %7, 16384
  %14 = zext i32 %13 to i64
  %15 = icmp ugt i32 %4, 16383
  %narrow.i.i = select i1 %15, i32 %4, i32 0
  %16 = zext i32 %narrow.i.i to i64
  %.0.i.i = add nuw nsw i64 %14, %16
  %17 = getelementptr inbounds nuw i8, ptr %1, i64 24
  %18 = load i8, ptr %17, align 8, !range !8, !noundef !9
  %19 = trunc nuw i8 %18 to i1
  br i1 %19, label %try_grow_buf_remaining.exit.thread, label %20

20:                                               ; preds = %12
  %21 = getelementptr inbounds nuw i8, ptr %1, i64 25
  %22 = load i8, ptr %21, align 1, !range !8, !noundef !9
  %23 = trunc nuw i8 %22 to i1
  br i1 %23, label %try_grow_buf_remaining.exit.thread, label %24

24:                                               ; preds = %20
  %25 = icmp samesign ugt i64 %.0.i.i, 4294901760
  br i1 %25, label %26, label %28

26:                                               ; preds = %24
  %27 = tail call i32 (ptr, ...) @error(ptr noundef nonnull @.str.8, ptr noundef nonnull @__func__.try_grow_buf, i64 noundef %.0.i.i, i32 noundef -65536) #14
  br label %try_grow_buf_remaining.exit.thread

28:                                               ; preds = %24
  %29 = getelementptr inbounds nuw i8, ptr %1, i64 8
  %30 = tail call ptr @slurm_xrecalloc(ptr noundef nonnull %29, i64 noundef 1, i64 noundef %.0.i.i, i1 noundef zeroext true, i1 noundef zeroext true, ptr noundef nonnull @.str.1, i32 noundef 238, ptr noundef nonnull @__func__.try_grow_buf) #14
  %.not.i.i = icmp eq ptr %30, null
  br i1 %.not.i.i, label %try_grow_buf_remaining.exit.thread, label %31

31:                                               ; preds = %28
  %32 = trunc nuw i64 %.0.i.i to i32
  store i32 %32, ptr %6, align 8
  %.pre = load i32, ptr %8, align 4
  br label %try_grow_buf_remaining.exit

try_grow_buf_remaining.exit:                      ; preds = %31, %5
  %33 = phi i32 [ %.pre, %31 ], [ %9, %5 ]
  %34 = getelementptr inbounds nuw i8, ptr %1, i64 8
  %35 = load ptr, ptr %34, align 8
  %36 = zext i32 %33 to i64
  %37 = getelementptr inbounds nuw i8, ptr %35, i64 %36
  %38 = getelementptr inbounds nuw i8, ptr %0, i64 8
  %39 = load ptr, ptr %38, align 8
  %40 = zext i32 %4 to i64
  tail call void @llvm.memcpy.p0.p0.i64(ptr align 1 %37, ptr align 1 %39, i64 %40, i1 false)
  %41 = load i32, ptr %8, align 4
  %42 = add i32 %41, %4
  store i32 %42, ptr %8, align 4
  br label %try_grow_buf_remaining.exit.thread

try_grow_buf_remaining.exit.thread:               ; preds = %28, %12, %20, %26, %2, %try_grow_buf_remaining.exit
  ret void
}